; Function Attrs: nounwind uwtable
define ptr @l_List_flatMapTR_go___at___private_Lean_Data_Position_0__Lean_toJsonPosition____x40_Lean_Data_Position___hyg_237____spec__1(ptr noundef %0, ptr noundef %1) local_unnamed_addr #0 {
  br label %3

3:                                                ; preds = %lean_dec.exit, %2
  %.012 = phi ptr [ %1, %2 ], [ %43, %lean_dec.exit ]
  %.0 = phi ptr [ %0, %2 ], [ %27, %lean_dec.exit ]
  %4 = ptrtoint ptr %.0 to i64
  %5 = and i64 %4, 1
  %.not.i14 = icmp eq i64 %5, 0
  br i1 %.not.i14, label %9, label %6

6:                                                ; preds = %3
  %7 = lshr i64 %4, 1
  %8 = trunc i64 %7 to i32
  br label %lean_obj_tag.exit

9:                                                ; preds = %3
  %10 = getelementptr i8, ptr %.0, i64 4
  %.val.i = load i32, ptr %10, align 4
  %11 = lshr i32 %.val.i, 24
  br label %lean_obj_tag.exit

lean_obj_tag.exit:                                ; preds = %6, %9
  %.0.i = phi i32 [ %8, %6 ], [ %11, %9 ]
  %12 = icmp eq i32 %.0.i, 0
  br i1 %12, label %13, label %15

13:                                               ; preds = %lean_obj_tag.exit
  %14 = tail call ptr @lean_array_to_list(ptr noundef %.012) #6
  ret ptr %14

15:                                               ; preds = %lean_obj_tag.exit
  %16 = getelementptr inbounds nuw i8, ptr %.0, i64 8
  %17 = load ptr, ptr %16, align 8, !tbaa !4
  %18 = ptrtoint ptr %17 to i64
  %19 = and i64 %18, 1
  %.not = icmp eq i64 %19, 0
  br i1 %.not, label %20, label %lean_inc.exit13

20:                                               ; preds = %15
  %.val.i15 = load i32, ptr %17, align 4, !tbaa !9
  %21 = icmp sgt i32 %.val.i15, 0
  br i1 %21, label %22, label %24, !prof !12

22:                                               ; preds = %20
  %23 = add nuw i32 %.val.i15, 1
  store i32 %23, ptr %17, align 4, !tbaa !9
  br label %lean_inc.exit13

24:                                               ; preds = %20
  %.not.i16 = icmp eq i32 %.val.i15, 0
  br i1 %.not.i16, label %lean_inc.exit13, label %25

25:                                               ; preds = %24
  tail call void @lean_inc_ref_cold(ptr noundef nonnull %17) #6
  br label %lean_inc.exit13

lean_inc.exit13:                                  ; preds = %25, %24, %22, %15
  %26 = getelementptr inbounds nuw i8, ptr %.0, i64 16
  %27 = load ptr, ptr %26, align 8, !tbaa !4
  %28 = ptrtoint ptr %27 to i64
  %29 = and i64 %28, 1
  %.not20 = icmp eq i64 %29, 0
  br i1 %.not20, label %30, label %lean_inc.exit

30:                                               ; preds = %lean_inc.exit13
  %.val.i17 = load i32, ptr %27, align 4, !tbaa !9
  %31 = icmp sgt i32 %.val.i17, 0
  br i1 %31, label %32, label %34, !prof !12

32:                                               ; preds = %30
  %33 = add nuw i32 %.val.i17, 1
  store i32 %33, ptr %27, align 4, !tbaa !9
  br label %lean_inc.exit

34:                                               ; preds = %30
  %.not.i18 = icmp eq i32 %.val.i17, 0
  br i1 %.not.i18, label %lean_inc.exit, label %35

35:                                               ; preds = %34
  tail call void @lean_inc_ref_cold(ptr noundef nonnull %27) #6
  br label %lean_inc.exit

lean_inc.exit:                                    ; preds = %35, %34, %32, %lean_inc.exit13
  br i1 %.not.i14, label %36, label %lean_dec.exit

36:                                               ; preds = %lean_inc.exit
  %37 = load i32, ptr %.0, align 4, !tbaa !9
  %38 = icmp sgt i32 %37, 1
  br i1 %38, label %39, label %41, !prof !12

39:                                               ; preds = %36
  %40 = add nsw i32 %37, -1
  store i32 %40, ptr %.0, align 4, !tbaa !9
  br label %lean_dec.exit

41:                                               ; preds = %36
  %.not.i = icmp eq i32 %37, 0
  br i1 %.not.i, label %lean_dec.exit, label %42

42:                                               ; preds = %41
  tail call void @lean_dec_ref_cold(ptr noundef nonnull %.0) #6
  br label %lean_dec.exit

lean_dec.exit:                                    ; preds = %42, %41, %39, %lean_inc.exit
  %43 = tail call ptr @l_List_foldl___at_Array_appendList___spec__1___rarg(ptr noundef %.012, ptr noundef %17) #6
  br label %3
}